target datalayout = "e-m:e-p270:32:32-p271:32:32-p272:64:64-i64:64-i128:128-f80:128-n8:16:32:64-S128"
target triple = "x86_64-unknown-linux-gnu"

%"class.google::protobuf::internal::InternalMetadata" = type { i64 }
%"class.google::protobuf::internal::HasBits" = type { [1 x i32] }
%"class.google::protobuf::internal::CachedSize" = type { i32 }
%"struct.google::protobuf::internal::ArenaStringPtr" = type { %"class.google::protobuf::internal::TaggedStringPtr" }
%"class.google::protobuf::internal::TaggedStringPtr" = type { ptr }
%"class.google::protobuf::Message" = type { %"class.google::protobuf::MessageLite" }
%"class.google::protobuf::MessageLite" = type { ptr, %"class.google::protobuf::internal::InternalMetadata" }
%"class.google::protobuf::internal::RepeatedPtrFieldBase" = type { ptr, i32, i32, ptr }
%"class.google::protobuf::RepeatedPtrField" = type { %"class.google::protobuf::internal::RepeatedPtrFieldBase" }
%"class.google::protobuf::Enum" = type { %"class.google::protobuf::Message", %union.anon.10 }
%union.anon.10 = type { %"struct.google::protobuf::Enum::Impl_" }
%"struct.google::protobuf::Enum::Impl_" = type <{ %"class.google::protobuf::internal::HasBits", %"class.google::protobuf::internal::CachedSize", %"class.google::protobuf::RepeatedPtrField.9", %"class.google::protobuf::RepeatedPtrField", %"struct.google::protobuf::internal::ArenaStringPtr", %"struct.google::protobuf::internal::ArenaStringPtr", ptr, i32, [4 x i8] }>
%"class.google::protobuf::RepeatedPtrField.9" = type { %"class.google::protobuf::internal::RepeatedPtrFieldBase" }

; Function Attrs: mustprogress uwtable
define void @_ZN6google8protobuf4Enum20clear_source_contextEv(ptr noundef nonnull align 8 dereferenceable(104) %this) #4 align 2 {
entry:
  %this.addr.i = alloca ptr, align 8
  %index.addr.i = alloca i32, align 4
  %this.addr = alloca ptr, align 8
  store ptr %this, ptr %this.addr, align 8
  %this1 = load ptr, ptr %this.addr, align 8
  %0 = getelementptr inbounds %"class.google::protobuf::Enum", ptr %this1, i32 0, i32 1
  %source_context_ = getelementptr inbounds %"struct.google::protobuf::Enum::Impl_", ptr %0, i32 0, i32 6
  %1 = load ptr, ptr %source_context_, align 8
  %cmp = icmp ne ptr %1, null
  br i1 %cmp, label %if.then, label %if.end

if.then:                                          ; preds = %entry
  %2 = getelementptr inbounds %"class.google::protobuf::Enum", ptr %this1, i32 0, i32 1
  %source_context_2 = getelementptr inbounds %"struct.google::protobuf::Enum::Impl_", ptr %2, i32 0, i32 6
  %3 = load ptr, ptr %source_context_2, align 8
  call void @_ZN6google8protobuf13SourceContext5ClearEv(ptr noundef nonnull align 8 dereferenceable(32) %3)
  br label %if.end

if.end:                                           ; preds = %if.then, %entry
  %4 = getelementptr inbounds %"class.google::protobuf::Enum", ptr %this1, i32 0, i32 1
  %_has_bits_ = getelementptr inbounds %"struct.google::protobuf::Enum::Impl_", ptr %4, i32 0, i32 0
  store ptr %_has_bits_, ptr %this.addr.i, align 8
  store i32 0, ptr %index.addr.i, align 4
  %this1.i = load ptr, ptr %this.addr.i, align 8
  %5 = load i32, ptr %index.addr.i, align 4
  %idxprom.i = sext i32 %5 to i64
  %arrayidx.i = getelementptr inbounds [1 x i32], ptr %this1.i, i64 0, i64 %idxprom.i
  %6 = load i32, ptr %arrayidx.i, align 4
  %and = and i32 %6, -2
  store i32 %and, ptr %arrayidx.i, align 4
  ret void
}